target datalayout = "e-m:e-p270:32:32-p271:32:32-p272:64:64-i64:64-i128:128-f80:128-n8:16:32:64-S128"
target triple = "x86_64-unknown-linux-gnu"

%"class.spacer::model_node" = type <{ %class.ref, ptr, %class.ptr_vector, ptr, ptr, i32, i32, i8, [7 x i8] }>
%class.ref = type { ptr }
%class.ptr_vector = type { %class.vector }
%class.vector = type { ptr }
%"class.spacer::model_search" = type { i8, ptr, ptr, %class.vector.7 }
%class.vector.7 = type { ptr }
%class.obj_map = type { %class.core_hashtable }
%class.core_hashtable = type <{ ptr, i32, i32, i32, [4 x i8] }>

; Function Attrs: mustprogress nounwind uwtable
define linkonce_odr hidden noundef nonnull align 8 dereferenceable(24) ptr @_ZN6vectorI7obj_mapI4expr10ptr_vectorIN6spacer10model_nodeEEELb1EjEixEj(ptr noundef nonnull align 8 dereferenceable(8) %this, i32 noundef %idx) #5 comdat align 2 {
entry:
  %this.addr = alloca ptr, align 8
  %idx.addr = alloca i32, align 4
  store ptr %this, ptr %this.addr, align 8
  store i32 %idx, ptr %idx.addr, align 4
  %this1 = load ptr, ptr %this.addr, align 8
  %m_data = getelementptr inbounds %class.vector.7, ptr %this1, i32 0, i32 0
  %0 = load ptr, ptr %m_data, align 8
  %1 = load i32, ptr %idx.addr, align 4
  %idxprom = zext i32 %1 to i64
  %arrayidx = getelementptr inbounds %class.obj_map, ptr %0, i64 %idxprom
  ret ptr %arrayidx
}

; Function Attrs: mustprogress nounwind uwtable
define linkonce_odr hidden noundef i32 @_ZNK6vectorI7obj_mapI4expr10ptr_vectorIN6spacer10model_nodeEEELb1EjE4sizeEv(ptr noundef nonnull align 8 dereferenceable(8) %this) #5 comdat align 2 {
entry:
  %retval = alloca i32, align 4
  %this.addr = alloca ptr, align 8
  store ptr %this, ptr %this.addr, align 8
  %this1 = load ptr, ptr %this.addr, align 8
  %m_data = getelementptr inbounds %class.vector.7, ptr %this1, i32 0, i32 0
  %0 = load ptr, ptr %m_data, align 8
  %cmp = icmp eq ptr %0, null
  br i1 %cmp, label %if.then, label %if.end

if.then:                                          ; preds = %entry
  store i32 0, ptr %retval, align 4
  br label %return

if.end:                                           ; preds = %entry
  %m_data2 = getelementptr inbounds %class.vector.7, ptr %this1, i32 0, i32 0
  %1 = load ptr, ptr %m_data2, align 8
  %arrayidx = getelementptr inbounds i32, ptr %1, i64 -1
  %2 = load i32, ptr %arrayidx, align 4
  store i32 %2, ptr %retval, align 4
  br label %return

return:                                           ; preds = %if.end, %if.then
  %3 = load i32, ptr %retval, align 4
  ret i32 %3
}

; Function Attrs: mustprogress nounwind uwtable
define linkonce_odr hidden noundef i32 @_ZNK6spacer10model_node10orig_levelEv(ptr noundef nonnull align 8 dereferenceable(49) %this) #5 comdat align 2 {
entry:
  %this.addr = alloca ptr, align 8
  store ptr %this, ptr %this.addr, align 8
  %this1 = load ptr, ptr %this.addr, align 8
  %m_orig_level = getelementptr inbounds %"class.spacer::model_node", ptr %this1, i32 0, i32 5
  %0 = load i32, ptr %m_orig_level, align 8
  ret i32 %0
}

; Function Attrs: mustprogress uwtable
define hidden noundef nonnull align 8 dereferenceable(24) ptr @_ZN6spacer12model_search5cacheERKNS_10model_nodeE(ptr noundef nonnull align 8 dereferenceable(32) %this, ptr noundef nonnull align 8 dereferenceable(49) %n) #4 align 2 {
entry:
  %this.addr = alloca ptr, align 8
  %n.addr = alloca ptr, align 8
  %l = alloca i32, align 4
  store ptr %this, ptr %this.addr, align 8
  store ptr %n, ptr %n.addr, align 8
  %this1 = load ptr, ptr %this.addr, align 8
  %0 = load ptr, ptr %n.addr, align 8
  %call = call noundef i32 @_ZNK6spacer10model_node10orig_levelEv(ptr noundef nonnull align 8 dereferenceable(49) %0)
  store i32 %call, ptr %l, align 4
  %1 = load i32, ptr %l, align 4
  %m_cache = getelementptr inbounds %"class.spacer::model_search", ptr %this1, i32 0, i32 3
  %call2 = call noundef i32 @_ZNK6vectorI7obj_mapI4expr10ptr_vectorIN6spacer10model_nodeEEELb1EjE4sizeEv(ptr noundef nonnull align 8 dereferenceable(8) %m_cache)
  %cmp = icmp uge i32 %1, %call2
  br i1 %cmp, label %if.then, label %if.end

if.then:                                          ; preds = %entry
  %m_cache3 = getelementptr inbounds %"class.spacer::model_search", ptr %this1, i32 0, i32 3
  %2 = load i32, ptr %l, align 4
  %add = add i32 %2, 1
  call void @_ZN6vectorI7obj_mapI4expr10ptr_vectorIN6spacer10model_nodeEEELb1EjE6resizeEj(ptr noundef nonnull align 8 dereferenceable(8) %m_cache3, i32 noundef %add)
  br label %if.end

if.end:                                           ; preds = %if.then, %entry
  %m_cache4 = getelementptr inbounds %"class.spacer::model_search", ptr %this1, i32 0, i32 3
  %3 = load i32, ptr %l, align 4
  %call5 = call noundef nonnull align 8 dereferenceable(24) ptr @_ZN6vectorI7obj_mapI4expr10ptr_vectorIN6spacer10model_nodeEEELb1EjEixEj(ptr noundef nonnull align 8 dereferenceable(8) %m_cache4, i32 noundef %3)
  ret ptr %call5
}