; Function Attrs: mustprogress uwtable
define hidden noundef nonnull align 8 dereferenceable(24) ptr @_ZN6spacer12model_search5cacheERKNS_10model_nodeE(ptr noundef nonnull align 8 dereferenceable(32) %this, ptr nocapture noundef nonnull readonly align 8 dereferenceable(49) %n) local_unnamed_addr #3 align 2 {
entry:
  %m_orig_level.i = getelementptr inbounds i8, ptr %n, i64 40
  %0 = load i32, ptr %m_orig_level.i, align 8
  %m_cache = getelementptr inbounds i8, ptr %this, i64 24
  %1 = load ptr, ptr %m_cache, align 8
  %cmp.i = icmp eq ptr %1, null
  br i1 %cmp.i, label %if.then, label %_ZNK6vectorI7obj_mapI4expr10ptr_vectorIN6spacer10model_nodeEEELb1EjE4sizeEv.exit

_ZNK6vectorI7obj_mapI4expr10ptr_vectorIN6spacer10model_nodeEEELb1EjE4sizeEv.exit: ; preds = %entry
  %arrayidx.i = getelementptr inbounds i8, ptr %1, i64 -4
  %2 = load i32, ptr %arrayidx.i, align 4
  %cmp.not = icmp ult i32 %0, %2
  br i1 %cmp.not, label %if.end, label %if.then

if.then:                                          ; preds = %entry, %_ZNK6vectorI7obj_mapI4expr10ptr_vectorIN6spacer10model_nodeEEELb1EjE4sizeEv.exit
  %add = add i32 %0, 1
  tail call void @_ZN6vectorI7obj_mapI4expr10ptr_vectorIN6spacer10model_nodeEEELb1EjE6resizeEj(ptr noundef nonnull align 8 dereferenceable(8) %m_cache, i32 noundef %add)
  %.pre = load ptr, ptr %m_cache, align 8
  br label %if.end

if.end:                                           ; preds = %if.then, %_ZNK6vectorI7obj_mapI4expr10ptr_vectorIN6spacer10model_nodeEEELb1EjE4sizeEv.exit
  %3 = phi ptr [ %.pre, %if.then ], [ %1, %_ZNK6vectorI7obj_mapI4expr10ptr_vectorIN6spacer10model_nodeEEELb1EjE4sizeEv.exit ]
  %idxprom.i = zext i32 %0 to i64
  %arrayidx.i3 = getelementptr inbounds %class.obj_map, ptr %3, i64 %idxprom.i
  ret ptr %arrayidx.i3
}